; Function Attrs: mustprogress nofree norecurse nosync nounwind willreturn memory(read, inaccessiblemem: write) uwtable
define noundef zeroext i1 @_ZN3zmq6dist_t8has_pipeEPNS_6pipe_tE(ptr noundef nonnull readonly align 8 captures(none) dereferenceable(49) %0, ptr noundef readonly %1) local_unnamed_addr #7 align 2 {
  %3 = icmp ne ptr %1, null
  tail call void @llvm.assume(i1 %3)
  %4 = getelementptr inbounds nuw i8, ptr %1, i64 48
  %5 = load i32, ptr %4, align 8, !tbaa !25
  %6 = sext i32 %5 to i64
  %7 = getelementptr inbounds nuw i8, ptr %0, i64 8
  %8 = load ptr, ptr %7, align 8, !tbaa !24
  %9 = load ptr, ptr %0, align 8, !tbaa !12
  %10 = ptrtoint ptr %8 to i64
  %11 = ptrtoint ptr %9 to i64
  %12 = sub i64 %10, %11
  %13 = ashr exact i64 %12, 3
  %.not = icmp ugt i64 %13, %6
  br i1 %.not, label %14, label %18

14:                                               ; preds = %2
  %15 = getelementptr inbounds nuw ptr, ptr %9, i64 %6
  %16 = load ptr, ptr %15, align 8, !tbaa !29
  %17 = icmp eq ptr %16, %1
  br label %18

18:                                               ; preds = %2, %14
  %.0 = phi i1 [ %17, %14 ], [ false, %2 ]
  ret i1 %.0
}